#include <math.h>
#include <stdio.h>
#include <stdlib.h>
#include <string.h>

int main(){
	double xgd,bz;
	int l,i,count;
	char dna1[110],dna2[110];
	count=0;
	scanf("%lf",&bz);
	scanf("%s",dna1);
	scanf("%s",dna2);
	l=strlen(dna1);
	for(i=0;i<l;i++){
		if(!(dna1[i]=='A'||dna1[i]=='G'||dna1[i]=='C'||dna1[i]=='T')||
			!(dna2[i]=='A'||dna2[i]=='G'||dna2[i]=='C'||dna2[i]=='T')){
			printf("error");
			return 0;
		}
	}
	for(i=0;i<l;i++){
		if(dna1[i]==dna2[i])
			count++;
	}
	xgd=1.0*count/l;
	if(xgd>=bz)
		printf("yes");
	else
		printf("no");
	return 0;
}